; Function Attrs: mustprogress nofree norecurse nosync nounwind willreturn memory(argmem: read) uwtable
define hidden range(i32 -106, 111) i32 @uv__udp_check_before_send(ptr noundef readonly captures(none) %0, ptr noundef readonly captures(address_is_null) %1) local_unnamed_addr #12 {
  %3 = getelementptr inbounds nuw i8, ptr %0, i64 16
  %4 = load i32, ptr %3, align 8
  %.not = icmp eq i32 %4, 15
  br i1 %.not, label %5, label %16

5:                                                ; preds = %2
  %cond = icmp eq ptr %1, null
  %6 = getelementptr inbounds nuw i8, ptr %0, i64 88
  %7 = load i32, ptr %6, align 8
  %8 = and i32 %7, 33554432
  %.not15 = icmp eq i32 %8, 0
  br i1 %cond, label %10, label %9

9:                                                ; preds = %5
  br i1 %.not15, label %11, label %16

10:                                               ; preds = %5
  %.mux = select i1 %.not15, i32 -89, i32 0
  br label %16

11:                                               ; preds = %9
  %12 = load i16, ptr %1, align 2
  switch i16 %12, label %16 [
    i16 2, label %15
    i16 10, label %13
    i16 1, label %14
  ]

13:                                               ; preds = %11
  br label %16

14:                                               ; preds = %11
  br label %16

15:                                               ; preds = %11
  br label %16

16:                                               ; preds = %10, %13, %14, %11, %9, %2, %15
  %.010 = phi i32 [ -22, %2 ], [ -106, %9 ], [ %.mux, %10 ], [ -22, %11 ], [ 28, %13 ], [ 110, %14 ], [ 16, %15 ]
  ret i32 %.010
}